target datalayout = "e-m:e-p270:32:32-p271:32:32-p272:64:64-i64:64-i128:128-f80:128-n8:16:32:64-S128"
target triple = "x86_64-unknown-linux-gnu"

%"class.std::__cxx11::basic_string" = type { %"struct.std::__cxx11::basic_string<char>::_Alloc_hider", i64, %union.anon }
%"struct.std::__cxx11::basic_string<char>::_Alloc_hider" = type { ptr }
%union.anon = type { i64, [8 x i8] }
%struct.sockaddr_storage = type { i16, [118 x i8], i64 }
%"class.zmq::tipc_address_t" = type { i8, %struct.sockaddr_tipc }
%struct.sockaddr_tipc = type { i16, i8, i8, %union.anon.51 }
%union.anon.51 = type { %struct.tipc_service_range }
%struct.tipc_service_range = type { i32, i32, i32 }

; Function Attrs: mustprogress uwtable
define linkonce_odr void @_ZN3zmq15get_socket_nameINS_14tipc_address_tEEENSt7__cxx1112basic_stringIcSt11char_traitsIcESaIcEEEiNS_12socket_end_tE(ptr noalias sret(%"class.std::__cxx11::basic_string") align 8 %agg.result, i32 noundef %fd_, i32 noundef %socket_end_) #0 comdat personality ptr @__gxx_personality_v0 {
entry:
  %result.ptr = alloca ptr, align 8
  %fd_.addr = alloca i32, align 4
  %socket_end_.addr = alloca i32, align 4
  %ss = alloca %struct.sockaddr_storage, align 8
  %sl = alloca i32, align 4
  %addr = alloca %"class.zmq::tipc_address_t", align 4
  %nrvo = alloca i1, align 1
  %exn.slot = alloca ptr, align 8
  %ehselector.slot = alloca i32, align 4
  store ptr %agg.result, ptr %result.ptr, align 8
  store i32 %fd_, ptr %fd_.addr, align 4
  store i32 %socket_end_, ptr %socket_end_.addr, align 4
  %0 = load i32, ptr %fd_.addr, align 4
  %1 = load i32, ptr %socket_end_.addr, align 4
  %call = call noundef i32 @_ZN3zmq18get_socket_addressEiNS_12socket_end_tEP16sockaddr_storage(i32 noundef %0, i32 noundef %1, ptr noundef %ss)
  store i32 %call, ptr %sl, align 4
  %2 = load i32, ptr %sl, align 4
  %cmp = icmp eq i32 %2, 0
  br i1 %cmp, label %if.then, label %if.end

if.then:                                          ; preds = %entry
  call void @_ZNSt7__cxx1112basic_stringIcSt11char_traitsIcESaIcEEC1Ev(ptr noundef nonnull align 8 dereferenceable(32) %agg.result) #8
  br label %return

if.end:                                           ; preds = %entry
  %3 = load i32, ptr %sl, align 4
  call void @_ZN3zmq14tipc_address_tC1EPK8sockaddrj(ptr noundef nonnull align 4 dereferenceable(20) %addr, ptr noundef %ss, i32 noundef %3)
  store i1 false, ptr %nrvo, align 1
  call void @_ZNSt7__cxx1112basic_stringIcSt11char_traitsIcESaIcEEC1Ev(ptr noundef nonnull align 8 dereferenceable(32) %agg.result) #8
  %call1 = invoke noundef i32 @_ZNK3zmq14tipc_address_t9to_stringERNSt7__cxx1112basic_stringIcSt11char_traitsIcESaIcEEE(ptr noundef nonnull align 4 dereferenceable(20) %addr, ptr noundef nonnull align 8 dereferenceable(32) %agg.result)
          to label %invoke.cont unwind label %lpad

invoke.cont:                                      ; preds = %if.end
  store i1 true, ptr %nrvo, align 1
  %nrvo.val = load i1, ptr %nrvo, align 1
  br i1 %nrvo.val, label %nrvo.skipdtor, label %nrvo.unused

lpad:                                             ; preds = %if.end
  %4 = landingpad { ptr, i32 }
          cleanup
  %5 = extractvalue { ptr, i32 } %4, 0
  store ptr %5, ptr %exn.slot, align 8
  %6 = extractvalue { ptr, i32 } %4, 1
  store i32 %6, ptr %ehselector.slot, align 4
  call void @_ZNSt7__cxx1112basic_stringIcSt11char_traitsIcESaIcEED1Ev(ptr noundef nonnull align 8 dereferenceable(32) %agg.result) #8
  br label %eh.resume

nrvo.unused:                                      ; preds = %invoke.cont
  call void @_ZNSt7__cxx1112basic_stringIcSt11char_traitsIcESaIcEED1Ev(ptr noundef nonnull align 8 dereferenceable(32) %agg.result) #8
  br label %nrvo.skipdtor

nrvo.skipdtor:                                    ; preds = %nrvo.unused, %invoke.cont
  br label %return

return:                                           ; preds = %nrvo.skipdtor, %if.then
  ret void

eh.resume:                                        ; preds = %lpad
  %exn = load ptr, ptr %exn.slot, align 8
  %sel = load i32, ptr %ehselector.slot, align 4
  %lpad.val = insertvalue { ptr, i32 } poison, ptr %exn, 0
  %lpad.val2 = insertvalue { ptr, i32 } %lpad.val, i32 %sel, 1
  resume { ptr, i32 } %lpad.val2
}

; Function Attrs: mustprogress uwtable
define void @_ZN3zmq16tipc_connecter_t9out_eventEv(ptr noundef nonnull align 8 dereferenceable(1544) %this) unnamed_addr #0 align 2 personality ptr @__gxx_personality_v0 {
entry:
  %this.addr = alloca ptr, align 8
  %fd = alloca i32, align 4
  %ref.tmp = alloca %"class.std::__cxx11::basic_string", align 8
  %exn.slot = alloca ptr, align 8
  %ehselector.slot = alloca i32, align 4
  store ptr %this, ptr %this.addr, align 8
  %this1 = load ptr, ptr %this.addr, align 8
  %call = call noundef i32 @_ZN3zmq16tipc_connecter_t7connectEv(ptr noundef nonnull align 8 dereferenceable(1544) %this1)
  store i32 %call, ptr %fd, align 4
  call void @_ZN3zmq23stream_connecter_base_t9rm_handleEv(ptr noundef nonnull align 8 dereferenceable(1544) %this1)
  %0 = load i32, ptr %fd, align 4
  %cmp = icmp eq i32 %0, -1
  br i1 %cmp, label %if.then, label %if.end

if.then:                                          ; preds = %entry
  call void @_ZN3zmq23stream_connecter_base_t5closeEv(ptr noundef nonnull align 8 dereferenceable(1544) %this1)
  call void @_ZN3zmq23stream_connecter_base_t19add_reconnect_timerEv(ptr noundef nonnull align 8 dereferenceable(1544) %this1)
  br label %return

if.end:                                           ; preds = %entry
  %1 = load i32, ptr %fd, align 4
  %2 = load i32, ptr %fd, align 4
  call void @_ZN3zmq15get_socket_nameINS_14tipc_address_tEEENSt7__cxx1112basic_stringIcSt11char_traitsIcESaIcEEEiNS_12socket_end_tE(ptr sret(%"class.std::__cxx11::basic_string") align 8 %ref.tmp, i32 noundef %2, i32 noundef 0)
  invoke void @_ZN3zmq23stream_connecter_base_t13create_engineEiRKNSt7__cxx1112basic_stringIcSt11char_traitsIcESaIcEEE(ptr noundef nonnull align 8 dereferenceable(1544) %this1, i32 noundef %1, ptr noundef nonnull align 8 dereferenceable(32) %ref.tmp)
          to label %invoke.cont unwind label %lpad

invoke.cont:                                      ; preds = %if.end
  call void @_ZNSt7__cxx1112basic_stringIcSt11char_traitsIcESaIcEED1Ev(ptr noundef nonnull align 8 dereferenceable(32) %ref.tmp) #8
  br label %return

return:                                           ; preds = %invoke.cont, %if.then
  ret void

lpad:                                             ; preds = %if.end
  %3 = landingpad { ptr, i32 }
          cleanup
  %4 = extractvalue { ptr, i32 } %3, 0
  store ptr %4, ptr %exn.slot, align 8
  %5 = extractvalue { ptr, i32 } %3, 1
  store i32 %5, ptr %ehselector.slot, align 4
  call void @_ZNSt7__cxx1112basic_stringIcSt11char_traitsIcESaIcEED1Ev(ptr noundef nonnull align 8 dereferenceable(32) %ref.tmp) #8
  br label %eh.resume

eh.resume:                                        ; preds = %lpad
  %exn = load ptr, ptr %exn.slot, align 8
  %sel = load i32, ptr %ehselector.slot, align 4
  %lpad.val = insertvalue { ptr, i32 } poison, ptr %exn, 0
  %lpad.val2 = insertvalue { ptr, i32 } %lpad.val, i32 %sel, 1
  resume { ptr, i32 } %lpad.val2
}