; Function Attrs: mustprogress uwtable
define void @_ZN3zmq16tipc_connecter_t9out_eventEv(ptr noundef nonnull align 8 dereferenceable(1544) %this) unnamed_addr #0 align 2 personality ptr @__gxx_personality_v0 {
entry:
  %ss.i = alloca %struct.sockaddr_storage, align 8
  %addr.i = alloca %"class.zmq::tipc_address_t", align 4
  %ref.tmp = alloca %"class.std::__cxx11::basic_string", align 8
  %call = tail call noundef i32 @_ZN3zmq16tipc_connecter_t7connectEv(ptr noundef nonnull align 8 dereferenceable(1544) %this)
  tail call void @_ZN3zmq23stream_connecter_base_t9rm_handleEv(ptr noundef nonnull align 8 dereferenceable(1544) %this)
  %cmp = icmp eq i32 %call, -1
  br i1 %cmp, label %if.then, label %if.end

if.then:                                          ; preds = %entry
  tail call void @_ZN3zmq23stream_connecter_base_t5closeEv(ptr noundef nonnull align 8 dereferenceable(1544) %this)
  tail call void @_ZN3zmq23stream_connecter_base_t19add_reconnect_timerEv(ptr noundef nonnull align 8 dereferenceable(1544) %this)
  br label %return

if.end:                                           ; preds = %entry
  call void @llvm.lifetime.start.p0(i64 128, ptr nonnull %ss.i)
  call void @llvm.lifetime.start.p0(i64 20, ptr nonnull %addr.i)
  %call.i = call noundef i32 @_ZN3zmq18get_socket_addressEiNS_12socket_end_tEP16sockaddr_storage(i32 noundef %call, i32 noundef 0, ptr noundef nonnull %ss.i), !noalias !4
  %cmp.i = icmp eq i32 %call.i, 0
  br i1 %cmp.i, label %if.then.i, label %if.end.i

if.then.i:                                        ; preds = %if.end
  call void @_ZNSt7__cxx1112basic_stringIcSt11char_traitsIcESaIcEEC1Ev(ptr noundef nonnull align 8 dereferenceable(32) %ref.tmp) #10
  br label %_ZN3zmq15get_socket_nameINS_14tipc_address_tEEENSt7__cxx1112basic_stringIcSt11char_traitsIcESaIcEEEiNS_12socket_end_tE.exit

if.end.i:                                         ; preds = %if.end
  call void @_ZN3zmq14tipc_address_tC1EPK8sockaddrj(ptr noundef nonnull align 4 dereferenceable(20) %addr.i, ptr noundef nonnull %ss.i, i32 noundef %call.i), !noalias !4
  call void @_ZNSt7__cxx1112basic_stringIcSt11char_traitsIcESaIcEEC1Ev(ptr noundef nonnull align 8 dereferenceable(32) %ref.tmp) #10
  %call1.i = invoke noundef i32 @_ZNK3zmq14tipc_address_t9to_stringERNSt7__cxx1112basic_stringIcSt11char_traitsIcESaIcEEE(ptr noundef nonnull align 4 dereferenceable(20) %addr.i, ptr noundef nonnull align 8 dereferenceable(32) %ref.tmp)
          to label %_ZN3zmq15get_socket_nameINS_14tipc_address_tEEENSt7__cxx1112basic_stringIcSt11char_traitsIcESaIcEEEiNS_12socket_end_tE.exit unwind label %lpad.i

common.resume:                                    ; preds = %lpad, %lpad.i
  %common.resume.op = phi { ptr, i32 } [ %0, %lpad.i ], [ %1, %lpad ]
  call void @_ZNSt7__cxx1112basic_stringIcSt11char_traitsIcESaIcEED1Ev(ptr noundef nonnull align 8 dereferenceable(32) %ref.tmp) #10
  resume { ptr, i32 } %common.resume.op

lpad.i:                                           ; preds = %if.end.i
  %0 = landingpad { ptr, i32 }
          cleanup
  br label %common.resume

_ZN3zmq15get_socket_nameINS_14tipc_address_tEEENSt7__cxx1112basic_stringIcSt11char_traitsIcESaIcEEEiNS_12socket_end_tE.exit: ; preds = %if.then.i, %if.end.i
  call void @llvm.lifetime.end.p0(i64 128, ptr nonnull %ss.i)
  call void @llvm.lifetime.end.p0(i64 20, ptr nonnull %addr.i)
  invoke void @_ZN3zmq23stream_connecter_base_t13create_engineEiRKNSt7__cxx1112basic_stringIcSt11char_traitsIcESaIcEEE(ptr noundef nonnull align 8 dereferenceable(1544) %this, i32 noundef %call, ptr noundef nonnull align 8 dereferenceable(32) %ref.tmp)
          to label %invoke.cont unwind label %lpad

invoke.cont:                                      ; preds = %_ZN3zmq15get_socket_nameINS_14tipc_address_tEEENSt7__cxx1112basic_stringIcSt11char_traitsIcESaIcEEEiNS_12socket_end_tE.exit
  call void @_ZNSt7__cxx1112basic_stringIcSt11char_traitsIcESaIcEED1Ev(ptr noundef nonnull align 8 dereferenceable(32) %ref.tmp) #10
  br label %return

return:                                           ; preds = %invoke.cont, %if.then
  ret void

lpad:                                             ; preds = %_ZN3zmq15get_socket_nameINS_14tipc_address_tEEENSt7__cxx1112basic_stringIcSt11char_traitsIcESaIcEEEiNS_12socket_end_tE.exit
  %1 = landingpad { ptr, i32 }
          cleanup
  br label %common.resume
}